; Function Attrs: null_pointer_is_valid sspstrong uwtable
define internal i32 @dissect_credssp(ptr noundef %0, ptr noundef %1, ptr noundef %2, ptr readnone captures(none) %3) #0 {
  %5 = alloca %struct._asn1_ctx_t, align 8
  %.not = icmp eq ptr %2, null
  br i1 %.not, label %11, label %6

6:                                                ; preds = %4
  %7 = load i32, ptr @proto_credssp, align 4
  %8 = tail call ptr @proto_tree_add_item(ptr noundef nonnull %2, i32 noundef %7, ptr noundef %0, i32 noundef 0, i32 noundef -1, i32 noundef 0)
  %9 = load i32, ptr @ett_credssp, align 4
  %10 = tail call ptr @proto_item_add_subtree(ptr noundef %8, i32 noundef %9)
  br label %11

11:                                               ; preds = %6, %4
  %.0 = phi ptr [ %10, %6 ], [ null, %4 ]
  %12 = getelementptr inbounds nuw i8, ptr %1, i64 8
  %13 = load ptr, ptr %12, align 8
  tail call void @col_set_str(ptr noundef %13, i32 noundef 35, ptr noundef nonnull @.str.72)
  %14 = load ptr, ptr %12, align 8
  tail call void @col_clear(ptr noundef %14, i32 noundef 25)
  store i32 -1, ptr @creds_type, align 4
  store i32 -1, ptr @credssp_ver, align 4
  call void @llvm.lifetime.start.p0(i64 208, ptr nonnull %5) #5
  call void @asn1_ctx_init(ptr noundef nonnull %5, i32 noundef 0, i1 noundef zeroext true, ptr noundef %1)
  %15 = load i32, ptr @hf_credssp_TSRequest_PDU, align 4
  %16 = load i32, ptr @ett_credssp_TSRequest, align 4
  %17 = call i32 @dissect_ber_sequence(i1 noundef zeroext false, ptr noundef nonnull %5, ptr noundef %.0, ptr noundef %0, i32 noundef 0, ptr noundef nonnull @TSRequest_sequence, i32 noundef %15, i32 noundef %16)
  call void @llvm.lifetime.end.p0(i64 208, ptr nonnull %5) #5
  ret i32 %17
}